target datalayout = "e-m:e-p270:32:32-p271:32:32-p272:64:64-i64:64-i128:128-f80:128-n8:16:32:64-S128"
target triple = "x86_64-pc-linux-gnu"

%struct.fstWriterContext = type { ptr, ptr, ptr, ptr, ptr, ptr, ptr, i64, ptr, ptr, ptr, i32, ptr, i32, i32, i32, i8, i64, i64, i32, i32, i64, i64, i32, i32, i32, i64, i32, double, ptr, ptr, i32, i64, i8, i8, i8, i8, i8, i64, i64, i64, i64, i64, i32, ptr, i32, i8, ptr, ptr, ptr, ptr, i32 }

; Function Attrs: mustprogress uwtable
define internal noundef i32 @_ZL15fstWriterFseekoP16fstWriterContextP8_IO_FILEli(ptr noundef %0, ptr noundef %1, i64 noundef %2, i32 noundef %3) #0 {
  %5 = alloca ptr, align 8
  %6 = alloca ptr, align 8
  %7 = alloca i64, align 8
  %8 = alloca i32, align 4
  %9 = alloca i32, align 4
  store ptr %0, ptr %5, align 8, !tbaa !13
  store ptr %1, ptr %6, align 8, !tbaa !33
  store i64 %2, ptr %7, align 8, !tbaa !35
  store i32 %3, ptr %8, align 4, !tbaa !11
  call void @llvm.lifetime.start.p0(i64 4, ptr %9) #15
  %10 = load ptr, ptr %6, align 8, !tbaa !33
  %11 = load i64, ptr %7, align 8, !tbaa !35
  %12 = load i32, ptr %8, align 4, !tbaa !11
  %13 = call i32 @fseeko(ptr noundef %10, i64 noundef %11, i32 noundef %12)
  store i32 %13, ptr %9, align 4, !tbaa !11
  %14 = load i32, ptr %9, align 4, !tbaa !11
  %15 = icmp slt i32 %14, 0
  br i1 %15, label %16, label %22

16:                                               ; preds = %4
  %17 = load ptr, ptr %5, align 8, !tbaa !13
  %18 = getelementptr inbounds nuw %struct.fstWriterContext, ptr %17, i32 0, i32 46
  %19 = load i8, ptr %18, align 4
  %20 = and i8 %19, -2
  %21 = or i8 %20, 1
  store i8 %21, ptr %18, align 4
  br label %22

22:                                               ; preds = %16, %4
  %23 = load i32, ptr %9, align 4, !tbaa !11
  call void @llvm.lifetime.end.p0(i64 4, ptr %9) #15
  ret i32 %23
}

; Function Attrs: mustprogress uwtable
define void @fstWriterSetFileType(ptr noundef %0, i32 noundef %1) #0 {
  %3 = alloca ptr, align 8
  %4 = alloca i32, align 4
  %5 = alloca ptr, align 8
  %6 = alloca i64, align 8
  store ptr %0, ptr %3, align 8, !tbaa !50
  store i32 %1, ptr %4, align 4, !tbaa !107
  call void @llvm.lifetime.start.p0(i64 8, ptr %5) #15
  %7 = load ptr, ptr %3, align 8, !tbaa !50
  store ptr %7, ptr %5, align 8, !tbaa !13
  %8 = load ptr, ptr %5, align 8, !tbaa !13
  %9 = icmp ne ptr %8, null
  br i1 %9, label %10, label %46

10:                                               ; preds = %2
  %11 = load i32, ptr %4, align 4, !tbaa !107
  %12 = icmp sle i32 %11, 2
  br i1 %12, label %13, label %45

13:                                               ; preds = %10
  call void @llvm.lifetime.start.p0(i64 8, ptr %6) #15
  %14 = load ptr, ptr %5, align 8, !tbaa !13
  %15 = getelementptr inbounds nuw %struct.fstWriterContext, ptr %14, i32 0, i32 0
  %16 = load ptr, ptr %15, align 8, !tbaa !15
  %17 = call i64 @ftello(ptr noundef %16)
  store i64 %17, ptr %6, align 8, !tbaa !35
  %18 = load i32, ptr %4, align 4, !tbaa !107
  %19 = trunc i32 %18 to i8
  %20 = load ptr, ptr %5, align 8, !tbaa !13
  %21 = getelementptr inbounds nuw %struct.fstWriterContext, ptr %20, i32 0, i32 33
  store i8 %19, ptr %21, align 8, !tbaa !46
  %22 = load ptr, ptr %5, align 8, !tbaa !13
  %23 = load ptr, ptr %5, align 8, !tbaa !13
  %24 = getelementptr inbounds nuw %struct.fstWriterContext, ptr %23, i32 0, i32 0
  %25 = load ptr, ptr %24, align 8, !tbaa !15
  %26 = call noundef i32 @_ZL15fstWriterFseekoP16fstWriterContextP8_IO_FILEli(ptr noundef %22, ptr noundef %25, i64 noundef 321, i32 noundef 0)
  %27 = load ptr, ptr %5, align 8, !tbaa !13
  %28 = getelementptr inbounds nuw %struct.fstWriterContext, ptr %27, i32 0, i32 33
  %29 = load i8, ptr %28, align 8, !tbaa !46
  %30 = zext i8 %29 to i32
  %31 = load ptr, ptr %5, align 8, !tbaa !13
  %32 = getelementptr inbounds nuw %struct.fstWriterContext, ptr %31, i32 0, i32 0
  %33 = load ptr, ptr %32, align 8, !tbaa !15
  %34 = call i32 @fputc(i32 noundef %30, ptr noundef %33)
  %35 = load ptr, ptr %5, align 8, !tbaa !13
  %36 = getelementptr inbounds nuw %struct.fstWriterContext, ptr %35, i32 0, i32 0
  %37 = load ptr, ptr %36, align 8, !tbaa !15
  %38 = call i32 @fflush(ptr noundef %37)
  %39 = load ptr, ptr %5, align 8, !tbaa !13
  %40 = load ptr, ptr %5, align 8, !tbaa !13
  %41 = getelementptr inbounds nuw %struct.fstWriterContext, ptr %40, i32 0, i32 0
  %42 = load ptr, ptr %41, align 8, !tbaa !15
  %43 = load i64, ptr %6, align 8, !tbaa !35
  %44 = call noundef i32 @_ZL15fstWriterFseekoP16fstWriterContextP8_IO_FILEli(ptr noundef %39, ptr noundef %42, i64 noundef %43, i32 noundef 0)
  call void @llvm.lifetime.end.p0(i64 8, ptr %6) #15
  br label %45

45:                                               ; preds = %13, %10
  br label %46

46:                                               ; preds = %45, %2
  call void @llvm.lifetime.end.p0(i64 8, ptr %5) #15
  ret void
}