; Function Attrs: mustprogress nofree nounwind uwtable
define void @fstWriterSetFileType(ptr noundef captures(address_is_null) %0, i32 noundef %1) local_unnamed_addr #14 {
  %3 = icmp ne ptr %0, null
  %4 = icmp slt i32 %1, 3
  %or.cond = and i1 %3, %4
  br i1 %or.cond, label %5, label %_ZL15fstWriterFseekoP16fstWriterContextP8_IO_FILEli.exit15

5:                                                ; preds = %2
  %6 = load ptr, ptr %0, align 8, !tbaa !26
  %7 = tail call i64 @ftello(ptr noundef %6)
  %8 = trunc i32 %1 to i8
  %9 = getelementptr inbounds nuw i8, ptr %0, i64 232
  store i8 %8, ptr %9, align 8, !tbaa !38
  %10 = load ptr, ptr %0, align 8, !tbaa !26
  %11 = tail call i32 @fseeko(ptr noundef %10, i64 noundef 321, i32 noundef 0)
  %12 = icmp slt i32 %11, 0
  br i1 %12, label %13, label %_ZL15fstWriterFseekoP16fstWriterContextP8_IO_FILEli.exit

13:                                               ; preds = %5
  %14 = getelementptr inbounds nuw i8, ptr %0, i64 300
  %15 = load i8, ptr %14, align 4
  %16 = or i8 %15, 1
  store i8 %16, ptr %14, align 4
  br label %_ZL15fstWriterFseekoP16fstWriterContextP8_IO_FILEli.exit

_ZL15fstWriterFseekoP16fstWriterContextP8_IO_FILEli.exit: ; preds = %5, %13
  %17 = load i8, ptr %9, align 8, !tbaa !38
  %18 = zext i8 %17 to i32
  %19 = load ptr, ptr %0, align 8, !tbaa !26
  %20 = tail call i32 @fputc(i32 noundef %18, ptr noundef %19)
  %21 = load ptr, ptr %0, align 8, !tbaa !26
  %22 = tail call i32 @fflush(ptr noundef %21)
  %23 = load ptr, ptr %0, align 8, !tbaa !26
  %24 = tail call i32 @fseeko(ptr noundef %23, i64 noundef %7, i32 noundef 0)
  %25 = icmp slt i32 %24, 0
  br i1 %25, label %26, label %_ZL15fstWriterFseekoP16fstWriterContextP8_IO_FILEli.exit15

26:                                               ; preds = %_ZL15fstWriterFseekoP16fstWriterContextP8_IO_FILEli.exit
  %27 = getelementptr inbounds nuw i8, ptr %0, i64 300
  %28 = load i8, ptr %27, align 4
  %29 = or i8 %28, 1
  store i8 %29, ptr %27, align 4
  br label %_ZL15fstWriterFseekoP16fstWriterContextP8_IO_FILEli.exit15

_ZL15fstWriterFseekoP16fstWriterContextP8_IO_FILEli.exit15: ; preds = %26, %_ZL15fstWriterFseekoP16fstWriterContextP8_IO_FILEli.exit, %2
  ret void
}